target datalayout = "e-m:e-p270:32:32-p271:32:32-p272:64:64-i64:64-i128:128-f80:128-n8:16:32:64-S128"
target triple = "x86_64-pc-linux-gnu"

%"struct.cvc5::internal::theory::SubsolverSetupInfo" = type { ptr, ptr, %"class.cvc5::internal::TypeNode", %"class.cvc5::internal::TypeNode" }
%"class.cvc5::internal::TypeNode" = type { ptr }

; Function Attrs: mustprogress uwtable
define hidden void @_ZN4cvc58internal6theory18SubsolverSetupInfoC2ERKNS0_3EnvE(ptr noundef nonnull align 8 dereferenceable(32) %0, ptr noundef nonnull align 8 dereferenceable(696) %1) unnamed_addr #4 align 2 personality ptr @__gxx_personality_v0 {
  %3 = alloca ptr, align 8
  %4 = alloca ptr, align 8
  %5 = alloca ptr, align 8
  %6 = alloca i32, align 4
  store ptr %0, ptr %3, align 8, !tbaa !3
  store ptr %1, ptr %4, align 8, !tbaa !17
  %7 = load ptr, ptr %3, align 8
  %8 = getelementptr inbounds nuw %"struct.cvc5::internal::theory::SubsolverSetupInfo", ptr %7, i32 0, i32 0
  %9 = load ptr, ptr %4, align 8, !tbaa !17
  %10 = call noundef nonnull align 8 dereferenceable(408) ptr @_ZNK4cvc58internal3Env10getOptionsEv(ptr noundef nonnull align 8 dereferenceable(696) %9)
  store ptr %10, ptr %8, align 8, !tbaa !8
  %11 = getelementptr inbounds nuw %"struct.cvc5::internal::theory::SubsolverSetupInfo", ptr %7, i32 0, i32 1
  %12 = load ptr, ptr %4, align 8, !tbaa !17
  %13 = call noundef nonnull align 8 dereferenceable(88) ptr @_ZNK4cvc58internal3Env12getLogicInfoEv(ptr noundef nonnull align 8 dereferenceable(696) %12)
  store ptr %13, ptr %11, align 8, !tbaa !10
  %14 = getelementptr inbounds nuw %"struct.cvc5::internal::theory::SubsolverSetupInfo", ptr %7, i32 0, i32 2
  %15 = load ptr, ptr %4, align 8, !tbaa !17
  call void @_ZNK4cvc58internal3Env13getSepLocTypeEv(ptr dead_on_unwind writable sret(%"class.cvc5::internal::TypeNode") align 8 %14, ptr noundef nonnull align 8 dereferenceable(696) %15)
  %16 = getelementptr inbounds nuw %"struct.cvc5::internal::theory::SubsolverSetupInfo", ptr %7, i32 0, i32 3
  %17 = load ptr, ptr %4, align 8, !tbaa !17
  invoke void @_ZNK4cvc58internal3Env14getSepDataTypeEv(ptr dead_on_unwind writable sret(%"class.cvc5::internal::TypeNode") align 8 %16, ptr noundef nonnull align 8 dereferenceable(696) %17)
          to label %18 unwind label %19

18:                                               ; preds = %2
  ret void

19:                                               ; preds = %2
  %20 = landingpad { ptr, i32 }
          cleanup
  %21 = extractvalue { ptr, i32 } %20, 0
  store ptr %21, ptr %5, align 8
  %22 = extractvalue { ptr, i32 } %20, 1
  store i32 %22, ptr %6, align 4
  call void @_ZN4cvc58internal8TypeNodeD2Ev(ptr noundef nonnull align 8 dereferenceable(8) %14) #3
  br label %23

23:                                               ; preds = %19
  %24 = load ptr, ptr %5, align 8
  %25 = load i32, ptr %6, align 4
  %26 = insertvalue { ptr, i32 } poison, ptr %24, 0
  %27 = insertvalue { ptr, i32 } %26, i32 %25, 1
  resume { ptr, i32 } %27
}